; Function Attrs: null_pointer_is_valid sspstrong uwtable
define hidden void @cf_update_section_comment(ptr noundef captures(none) %0, ptr noundef %1) local_unnamed_addr #1 {
  %3 = alloca ptr, align 8
  call void @llvm.lifetime.start.p0(i64 8, ptr nonnull %3) #23
  %4 = getelementptr inbounds nuw i8, ptr %0, i64 224
  %5 = load ptr, ptr %4, align 8
  %6 = tail call ptr @wtap_file_get_shb(ptr noundef %5, i32 noundef 0)
  %7 = call i32 @wtap_block_get_nth_string_option_value(ptr noundef %6, i32 noundef 1, i32 noundef 0, ptr noundef nonnull %3)
  %.not = icmp eq i32 %7, 0
  br i1 %.not, label %11, label %8

8:                                                ; preds = %2
  %9 = call i64 @strlen(ptr noundef %1) #26
  %10 = call i32 @wtap_block_add_string_option(ptr noundef %6, i32 noundef 1, ptr noundef %1, i64 noundef %9)
  br label %19

11:                                               ; preds = %2
  %12 = load ptr, ptr %3, align 8
  %13 = call i32 @strcmp(ptr noundef %12, ptr noundef %1) #26
  %14 = icmp eq i32 %13, 0
  br i1 %14, label %15, label %16

15:                                               ; preds = %11
  call void @g_free(ptr noundef %1)
  br label %21

16:                                               ; preds = %11
  %17 = call i64 @strlen(ptr noundef %1) #26
  %18 = call i32 @wtap_block_set_nth_string_option_value(ptr noundef %6, i32 noundef 1, i32 noundef 0, ptr noundef %1, i64 noundef %17)
  br label %19

19:                                               ; preds = %16, %8
  %20 = getelementptr inbounds nuw i8, ptr %0, i64 33
  store i8 1, ptr %20, align 1
  br label %21

21:                                               ; preds = %19, %15
  call void @llvm.lifetime.end.p0(i64 8, ptr nonnull %3) #23
  ret void
}